; ModuleID = '45/354.c'
source_filename = "45/354.c"
target datalayout = "e-m:e-p270:32:32-p271:32:32-p272:64:64-i64:64-f80:128-n8:16:32:64-S128"
target triple = "x86_64-pc-linux-gnu"

@.str = private unnamed_addr constant [4 x i8] c"%d\0A\00", align 1

; Function Attrs: noinline nounwind uwtable
define dso_local i32 @main() #0 {
  %1 = alloca i32, align 4
  %2 = alloca [50 x i8], align 16
  %3 = alloca [50 x i8], align 16
  %4 = alloca [100 x i8], align 16
  %5 = alloca [50 x i8], align 16
  %6 = alloca i32, align 4
  %7 = alloca i32, align 4
  %8 = alloca i32, align 4
  %9 = alloca i32, align 4
  %10 = alloca i32, align 4
  %11 = alloca i32, align 4
  store i32 0, i32* %1, align 4
  %12 = bitcast [50 x i8]* %2 to i8*
  call void @llvm.memset.p0i8.i64(i8* align 16 %12, i8 0, i64 50, i1 false)
  %13 = bitcast [50 x i8]* %3 to i8*
  call void @llvm.memset.p0i8.i64(i8* align 16 %13, i8 0, i64 50, i1 false)
  %14 = bitcast [100 x i8]* %4 to i8*
  call void @llvm.memset.p0i8.i64(i8* align 16 %14, i8 0, i64 100, i1 false)
  %15 = bitcast [50 x i8]* %5 to i8*
  call void @llvm.memset.p0i8.i64(i8* align 16 %15, i8 0, i64 50, i1 false)
  %16 = getelementptr inbounds [100 x i8], [100 x i8]* %4, i64 0, i64 0
  %17 = call i32 (i8*, ...) bitcast (i32 (...)* @gets to i32 (i8*, ...)*)(i8* %16)
  store i32 0, i32* %6, align 4
  br label %18

18:                                               ; preds = %34, %0
  %19 = load i32, i32* %6, align 4
  %20 = sext i32 %19 to i64
  %21 = getelementptr inbounds [100 x i8], [100 x i8]* %4, i64 0, i64 0
  %22 = call i64 @strlen(i8* %21) #4
  %23 = icmp ult i64 %20, %22
  br i1 %23, label %24, label %37

24:                                               ; preds = %18
  %25 = load i32, i32* %6, align 4
  %26 = sext i32 %25 to i64
  %27 = getelementptr inbounds [100 x i8], [100 x i8]* %4, i64 0, i64 %26
  %28 = load i8, i8* %27, align 1
  %29 = sext i8 %28 to i32
  %30 = icmp eq i32 %29, 32
  br i1 %30, label %31, label %33

31:                                               ; preds = %24
  %32 = load i32, i32* %6, align 4
  store i32 %32, i32* %10, align 4
  br label %33

33:                                               ; preds = %31, %24
  br label %34

34:                                               ; preds = %33
  %35 = load i32, i32* %6, align 4
  %36 = add nsw i32 %35, 1
  store i32 %36, i32* %6, align 4
  br label %18

37:                                               ; preds = %18
  store i32 0, i32* %6, align 4
  br label %38

38:                                               ; preds = %50, %37
  %39 = load i32, i32* %6, align 4
  %40 = load i32, i32* %10, align 4
  %41 = icmp slt i32 %39, %40
  br i1 %41, label %42, label %53

42:                                               ; preds = %38
  %43 = load i32, i32* %6, align 4
  %44 = sext i32 %43 to i64
  %45 = getelementptr inbounds [100 x i8], [100 x i8]* %4, i64 0, i64 %44
  %46 = load i8, i8* %45, align 1
  %47 = load i32, i32* %6, align 4
  %48 = sext i32 %47 to i64
  %49 = getelementptr inbounds [50 x i8], [50 x i8]* %2, i64 0, i64 %48
  store i8 %46, i8* %49, align 1
  br label %50

50:                                               ; preds = %42
  %51 = load i32, i32* %6, align 4
  %52 = add nsw i32 %51, 1
  store i32 %52, i32* %6, align 4
  br label %38

53:                                               ; preds = %38
  %54 = load i32, i32* %10, align 4
  %55 = add nsw i32 %54, 1
  store i32 %55, i32* %6, align 4
  br label %56

56:                                               ; preds = %73, %53
  %57 = load i32, i32* %6, align 4
  %58 = sext i32 %57 to i64
  %59 = getelementptr inbounds [100 x i8], [100 x i8]* %4, i64 0, i64 0
  %60 = call i64 @strlen(i8* %59) #4
  %61 = icmp ult i64 %58, %60
  br i1 %61, label %62, label %76

62:                                               ; preds = %56
  %63 = load i32, i32* %6, align 4
  %64 = sext i32 %63 to i64
  %65 = getelementptr inbounds [100 x i8], [100 x i8]* %4, i64 0, i64 %64
  %66 = load i8, i8* %65, align 1
  %67 = load i32, i32* %6, align 4
  %68 = load i32, i32* %10, align 4
  %69 = sub nsw i32 %67, %68
  %70 = sub nsw i32 %69, 1
  %71 = sext i32 %70 to i64
  %72 = getelementptr inbounds [50 x i8], [50 x i8]* %3, i64 0, i64 %71
  store i8 %66, i8* %72, align 1
  br label %73

73:                                               ; preds = %62
  %74 = load i32, i32* %6, align 4
  %75 = add nsw i32 %74, 1
  store i32 %75, i32* %6, align 4
  br label %56

76:                                               ; preds = %56
  %77 = getelementptr inbounds [50 x i8], [50 x i8]* %2, i64 0, i64 0
  %78 = call i64 @strlen(i8* %77) #4
  %79 = trunc i64 %78 to i32
  store i32 %79, i32* %8, align 4
  %80 = getelementptr inbounds [50 x i8], [50 x i8]* %3, i64 0, i64 0
  %81 = call i64 @strlen(i8* %80) #4
  %82 = trunc i64 %81 to i32
  store i32 %82, i32* %9, align 4
  store i32 0, i32* %6, align 4
  br label %83

83:                                               ; preds = %128, %76
  %84 = load i32, i32* %6, align 4
  %85 = load i32, i32* %9, align 4
  %86 = icmp slt i32 %84, %85
  br i1 %86, label %87, label %131

87:                                               ; preds = %83
  %88 = load i32, i32* %6, align 4
  %89 = sext i32 %88 to i64
  %90 = getelementptr inbounds [50 x i8], [50 x i8]* %3, i64 0, i64 %89
  %91 = load i8, i8* %90, align 1
  %92 = sext i8 %91 to i32
  %93 = getelementptr inbounds [50 x i8], [50 x i8]* %2, i64 0, i64 0
  %94 = load i8, i8* %93, align 16
  %95 = sext i8 %94 to i32
  %96 = icmp eq i32 %92, %95
  br i1 %96, label %97, label %127

97:                                               ; preds = %87
  %98 = load i32, i32* %6, align 4
  store i32 %98, i32* %7, align 4
  br label %99

99:                                               ; preds = %115, %97
  %100 = load i32, i32* %7, align 4
  %101 = load i32, i32* %6, align 4
  %102 = load i32, i32* %8, align 4
  %103 = add nsw i32 %101, %102
  %104 = icmp slt i32 %100, %103
  br i1 %104, label %105, label %118

105:                                              ; preds = %99
  %106 = load i32, i32* %7, align 4
  %107 = sext i32 %106 to i64
  %108 = getelementptr inbounds [50 x i8], [50 x i8]* %3, i64 0, i64 %107
  %109 = load i8, i8* %108, align 1
  %110 = load i32, i32* %7, align 4
  %111 = load i32, i32* %6, align 4
  %112 = sub nsw i32 %110, %111
  %113 = sext i32 %112 to i64
  %114 = getelementptr inbounds [50 x i8], [50 x i8]* %5, i64 0, i64 %113
  store i8 %109, i8* %114, align 1
  br label %115

115:                                              ; preds = %105
  %116 = load i32, i32* %7, align 4
  %117 = add nsw i32 %116, 1
  store i32 %117, i32* %7, align 4
  br label %99

118:                                              ; preds = %99
  %119 = getelementptr inbounds [50 x i8], [50 x i8]* %5, i64 0, i64 0
  %120 = getelementptr inbounds [50 x i8], [50 x i8]* %2, i64 0, i64 0
  %121 = call i32 @strcmp(i8* %119, i8* %120) #4
  %122 = icmp eq i32 %121, 0
  br i1 %122, label %123, label %126

123:                                              ; preds = %118
  %124 = load i32, i32* %6, align 4
  %125 = call i32 (i8*, ...) @printf(i8* getelementptr inbounds ([4 x i8], [4 x i8]* @.str, i64 0, i64 0), i32 %124)
  br label %132

126:                                              ; preds = %118
  br label %127

127:                                              ; preds = %126, %87
  br label %128

128:                                              ; preds = %127
  %129 = load i32, i32* %6, align 4
  %130 = add nsw i32 %129, 1
  store i32 %130, i32* %6, align 4
  br label %83

131:                                              ; preds = %83
  br label %132

132:                                              ; preds = %131, %123
  ret i32 0
}

; Function Attrs: argmemonly nounwind willreturn
declare void @llvm.memset.p0i8.i64(i8* nocapture writeonly, i8, i64, i1 immarg) #1

declare dso_local i32 @gets(...) #2

; Function Attrs: nounwind readonly
declare dso_local i64 @strlen(i8*) #3

; Function Attrs: nounwind readonly
declare dso_local i32 @strcmp(i8*, i8*) #3

declare dso_local i32 @printf(i8*, ...) #2


!llvm.module.flags = !{!0}
!llvm.ident = !{!1}

!0 = !{i32 1, !"wchar_size", i32 4}
!1 = !{!"clang version 10.0.0-4ubuntu1 "}
